; Function Attrs: mustprogress nofree norecurse nosync nounwind willreturn memory(argmem: read) uwtable
define noundef i32 @_ZN7Archive14FullHeaderSizeEm(ptr nocapture noundef nonnull readonly align 8 dereferenceable(57108) %0, i64 noundef %1) local_unnamed_addr #9 align 2 {
  %3 = getelementptr inbounds i8, ptr %0, i64 48852
  %4 = load i8, ptr %3, align 4
  %5 = trunc i8 %4 to i1
  br i1 %5, label %6, label %17

6:                                                ; preds = %2
  %7 = sub i64 0, %1
  %8 = and i64 %7, 15
  %9 = add i64 %8, %1
  %10 = getelementptr inbounds i8, ptr %0, i64 48840
  %11 = load i32, ptr %10, align 8
  %12 = icmp eq i32 %11, 3
  br i1 %12, label %13, label %15

13:                                               ; preds = %6
  %14 = add i64 %9, 16
  br label %17

15:                                               ; preds = %6
  %16 = add i64 %9, 8
  br label %17

17:                                               ; preds = %13, %15, %2
  %.0 = phi i64 [ %14, %13 ], [ %16, %15 ], [ %1, %2 ]
  %18 = trunc i64 %.0 to i32
  ret i32 %18
}